; Function Attrs: nounwind uwtable
define void @Bmc_PerformFindFlopOrder_rec(ptr noundef readonly captures(none) %0, ptr noundef %1, ptr noundef captures(none) %2) local_unnamed_addr #0 {
  %4 = getelementptr inbounds nuw i8, ptr %0, i64 616
  %5 = getelementptr i8, ptr %0, i64 32
  %6 = getelementptr inbounds nuw i8, ptr %0, i64 176
  %7 = load ptr, ptr %4, align 8, !tbaa !79
  %.val.i28 = load ptr, ptr %5, align 8, !tbaa !50
  %8 = ptrtoint ptr %1 to i64
  %9 = ptrtoint ptr %.val.i28 to i64
  %10 = sub i64 %8, %9
  %11 = sdiv exact i64 %10, 12
  %sext.i29 = shl i64 %11, 32
  %12 = ashr exact i64 %sext.i29, 30
  %13 = getelementptr inbounds i8, ptr %7, i64 %12
  %14 = load i32, ptr %13, align 4, !tbaa !51
  %15 = load i32, ptr %6, align 8, !tbaa !80
  %.not30 = icmp eq i32 %14, %15
  br i1 %.not30, label %Gia_ObjIsRo.exit.thread, label %.lr.ph.preheader

.lr.ph.preheader:                                 ; preds = %3
  store i32 %15, ptr %13, align 4, !tbaa !51
  %.val1838 = load i64, ptr %1, align 4
  %16 = and i64 %.val1838, 2684354559
  %narrow.i.not39 = icmp eq i64 %16, 2684354559
  br i1 %narrow.i.not39, label %Gia_ObjIsRo.exit, label %tailrecurse

.lr.ph:                                           ; preds = %tailrecurse
  store i32 %74, ptr %72, align 4, !tbaa !51
  %.val18 = load i64, ptr %65, align 4
  %17 = and i64 %.val18, 2684354559
  %narrow.i.not = icmp eq i64 %17, 2684354559
  br i1 %narrow.i.not, label %Gia_ObjIsRo.exit, label %tailrecurse

Gia_ObjIsRo.exit:                                 ; preds = %.lr.ph, %.lr.ph.preheader
  %.lcssa = phi i64 [ %11, %.lr.ph.preheader ], [ %70, %.lr.ph ]
  %.val18.lcssa = phi i64 [ %.val1838, %.lr.ph.preheader ], [ %.val18, %.lr.ph ]
  %18 = lshr i64 %.val18.lcssa, 32
  %19 = trunc nuw i64 %18 to i32
  %20 = and i32 %19, 536870911
  %21 = getelementptr i8, ptr %0, i64 16
  %.val.i22 = load i32, ptr %21, align 8, !tbaa !3
  %22 = getelementptr i8, ptr %0, i64 64
  %.val3.i = load ptr, ptr %22, align 8, !tbaa !65
  %23 = getelementptr i8, ptr %.val3.i, i64 4
  %.val3.val.i = load i32, ptr %23, align 4, !tbaa !29
  %24 = sub nsw i32 %.val3.val.i, %.val.i22
  %.not24 = icmp slt i32 %20, %24
  br i1 %.not24, label %Gia_ObjIsRo.exit.thread, label %25

25:                                               ; preds = %Gia_ObjIsRo.exit
  %26 = trunc i64 %.lcssa to i32
  %27 = getelementptr inbounds nuw i8, ptr %2, i64 4
  %28 = load i32, ptr %27, align 4, !tbaa !29
  %29 = load i32, ptr %2, align 8, !tbaa !48
  %30 = icmp eq i32 %28, %29
  br i1 %30, label %31, label %.Vec_IntGrow.exit10_crit_edge.i

.Vec_IntGrow.exit10_crit_edge.i:                  ; preds = %25
  %.phi.trans.insert.i = getelementptr inbounds nuw i8, ptr %2, i64 8
  %.pre.i = load ptr, ptr %.phi.trans.insert.i, align 8, !tbaa !49
  br label %Vec_IntPush.exit

31:                                               ; preds = %25
  %32 = icmp slt i32 %28, 16
  br i1 %32, label %33, label %41

33:                                               ; preds = %31
  %34 = getelementptr inbounds nuw i8, ptr %2, i64 8
  %35 = load ptr, ptr %34, align 8, !tbaa !49
  %.not9.i.i = icmp eq ptr %35, null
  br i1 %.not9.i.i, label %38, label %36

36:                                               ; preds = %33
  %37 = tail call dereferenceable_or_null(64) ptr @realloc(ptr noundef nonnull %35, i64 noundef 64) #15
  br label %Vec_IntGrow.exit.i

38:                                               ; preds = %33
  %39 = tail call noalias dereferenceable_or_null(64) ptr @malloc(i64 noundef 64) #14
  br label %Vec_IntGrow.exit.i

Vec_IntGrow.exit.i:                               ; preds = %38, %36
  %40 = phi ptr [ %37, %36 ], [ %39, %38 ]
  store ptr %40, ptr %34, align 8, !tbaa !49
  store i32 16, ptr %2, align 8, !tbaa !48
  br label %Vec_IntPush.exit

41:                                               ; preds = %31
  %42 = shl nuw nsw i32 %28, 1
  %43 = getelementptr inbounds nuw i8, ptr %2, i64 8
  %44 = load ptr, ptr %43, align 8, !tbaa !49
  %.not9.i9.i = icmp eq ptr %44, null
  %45 = zext nneg i32 %42 to i64
  %46 = shl nuw nsw i64 %45, 2
  br i1 %.not9.i9.i, label %49, label %47

47:                                               ; preds = %41
  %48 = tail call ptr @realloc(ptr noundef nonnull %44, i64 noundef %46) #15
  br label %51

49:                                               ; preds = %41
  %50 = tail call noalias ptr @malloc(i64 noundef %46) #14
  br label %51

51:                                               ; preds = %49, %47
  %52 = phi ptr [ %48, %47 ], [ %50, %49 ]
  store ptr %52, ptr %43, align 8, !tbaa !49
  store i32 %42, ptr %2, align 8, !tbaa !48
  br label %Vec_IntPush.exit

Vec_IntPush.exit:                                 ; preds = %.Vec_IntGrow.exit10_crit_edge.i, %Vec_IntGrow.exit.i, %51
  %53 = phi ptr [ %.pre.i, %.Vec_IntGrow.exit10_crit_edge.i ], [ %52, %51 ], [ %40, %Vec_IntGrow.exit.i ]
  %54 = load i32, ptr %27, align 4, !tbaa !29
  %55 = add nsw i32 %54, 1
  store i32 %55, ptr %27, align 4, !tbaa !29
  %56 = sext i32 %54 to i64
  %57 = getelementptr inbounds i32, ptr %53, i64 %56
  store i32 %26, ptr %57, align 4, !tbaa !51
  br label %Gia_ObjIsRo.exit.thread

tailrecurse:                                      ; preds = %.lr.ph.preheader, %.lr.ph
  %.val1841 = phi i64 [ %.val18, %.lr.ph ], [ %.val1838, %.lr.ph.preheader ]
  %.tr253140 = phi ptr [ %65, %.lr.ph ], [ %1, %.lr.ph.preheader ]
  %58 = and i64 %.val1841, 536870911
  %59 = sub nsw i64 0, %58
  %60 = getelementptr inbounds %struct.Gia_Obj_t_, ptr %.tr253140, i64 %59
  tail call void @Bmc_PerformFindFlopOrder_rec(ptr noundef nonnull %0, ptr noundef nonnull %60, ptr noundef %2)
  %61 = load i64, ptr %.tr253140, align 4
  %62 = lshr i64 %61, 32
  %63 = and i64 %62, 536870911
  %64 = sub nsw i64 0, %63
  %65 = getelementptr inbounds %struct.Gia_Obj_t_, ptr %.tr253140, i64 %64
  %66 = load ptr, ptr %4, align 8, !tbaa !79
  %.val.i = load ptr, ptr %5, align 8, !tbaa !50
  %67 = ptrtoint ptr %65 to i64
  %68 = ptrtoint ptr %.val.i to i64
  %69 = sub i64 %67, %68
  %70 = sdiv exact i64 %69, 12
  %sext.i = shl i64 %70, 32
  %71 = ashr exact i64 %sext.i, 30
  %72 = getelementptr inbounds i8, ptr %66, i64 %71
  %73 = load i32, ptr %72, align 4, !tbaa !51
  %74 = load i32, ptr %6, align 8, !tbaa !80
  %.not = icmp eq i32 %73, %74
  br i1 %.not, label %Gia_ObjIsRo.exit.thread, label %.lr.ph

Gia_ObjIsRo.exit.thread:                          ; preds = %tailrecurse, %3, %Gia_ObjIsRo.exit, %Vec_IntPush.exit
  ret void
}